ccopy_reg
_reconstructor
p0
(cdedupe.datamodel
DataModel
p1
c__builtin__
object
p2
Ntp3
Rp4
(dp5
S'primary_fields'
p6
(lp7
g0
(cdedupe.variables.string
StringType
p8
g2
Ntp9
Rp10
(dp11
S'predicates'
p12
(lp13
g0
(cdedupe.predicates
StringPredicate
p14
g2
Ntp15
Rp16
(dp17
S'_cached_hash'
p18
I-403370162
sS'__name__'
p19
S'(wholeFieldPredicate, ln)'
p20
sS'func'
p21
cdedupe.predicates
wholeFieldPredicate
p22
sS'field'
p23
S'ln'
p24
sbag0
(g14
g2
Ntp25
Rp26
(dp27
g18
I-974381332
sg19
S'(firstTokenPredicate, ln)'
p28
sg21
cdedupe.predicates
firstTokenPredicate
p29
sg23
g24
sbag0
(g14
g2
Ntp30
Rp31
(dp32
g18
I-206309405
sg19
S'(commonIntegerPredicate, ln)'
p33
sg21
cdedupe.predicates
commonIntegerPredicate
p34
sg23
g24
sbag0
(g14
g2
Ntp35
Rp36
(dp37
g18
I-1790904232
sg19
S'(nearIntegersPredicate, ln)'
p38
sg21
cdedupe.predicates
nearIntegersPredicate
p39
sg23
g24
sbag0
(g14
g2
Ntp40
Rp41
(dp42
g18
I-261905537
sg19
S'(firstIntegerPredicate, ln)'
p43
sg21
cdedupe.predicates
firstIntegerPredicate
p44
sg23
g24
sbag0
(g14
g2
Ntp45
Rp46
(dp47
g18
I-891127802
sg19
S'(alphaNumericPredicate, ln)'
p48
sg21
cdedupe.predicates
alphaNumericPredicate
p49
sg23
g24
sbag0
(g14
g2
Ntp50
Rp51
(dp52
g18
I-1939976129
sg19
S'(sameThreeCharStartPredicate, ln)'
p53
sg21
cdedupe.predicates
sameThreeCharStartPredicate
p54
sg23
g24
sbag0
(g14
g2
Ntp55
Rp56
(dp57
g18
I-1494675518
sg19
S'(sameFiveCharStartPredicate, ln)'
p58
sg21
cdedupe.predicates
sameFiveCharStartPredicate
p59
sg23
g24
sbag0
(g14
g2
Ntp60
Rp61
(dp62
g18
I-1480114402
sg19
S'(sameSevenCharStartPredicate, ln)'
p63
sg21
cdedupe.predicates
sameSevenCharStartPredicate
p64
sg23
g24
sbag0
(g14
g2
Ntp65
Rp66
(dp67
g18
I-1666545245
sg19
S'(commonTwoTokens, ln)'
p68
sg21
cdedupe.predicates
commonTwoTokens
p69
sg23
g24
sbag0
(g14
g2
Ntp70
Rp71
(dp72
g18
I503230963
sg19
S'(commonThreeTokens, ln)'
p73
sg21
cdedupe.predicates
commonThreeTokens
p74
sg23
g24
sbag0
(g14
g2
Ntp75
Rp76
(dp77
g18
I-911661484
sg19
S'(fingerprint, ln)'
p78
sg21
cdedupe.predicates
fingerprint
p79
sg23
g24
sbag0
(g14
g2
Ntp80
Rp81
(dp82
g18
I-926405460
sg19
S'(oneGramFingerprint, ln)'
p83
sg21
cdedupe.predicates
oneGramFingerprint
p84
sg23
g24
sbag0
(g14
g2
Ntp85
Rp86
(dp87
g18
I-109472362
sg19
S'(twoGramFingerprint, ln)'
p88
sg21
cdedupe.predicates
twoGramFingerprint
p89
sg23
g24
sbag0
(g14
g2
Ntp90
Rp91
(dp92
g18
I-781466244
sg19
S'(sortedAcronym, ln)'
p93
sg21
cdedupe.predicates
sortedAcronym
p94
sg23
g24
sbag0
(g14
g2
Ntp95
Rp96
(dp97
g18
I-144536013
sg19
S'(commonFourGram, ln)'
p98
sg21
cdedupe.predicates
commonFourGram
p99
sg23
g24
sbag0
(g14
g2
Ntp100
Rp101
(dp102
g18
I2144981042
sg19
S'(commonSixGram, ln)'
p103
sg21
cdedupe.predicates
commonSixGram
p104
sg23
g24
sbag0
(g14
g2
Ntp105
Rp106
(dp107
g18
I919943404
sg19
S'(tokenFieldPredicate, ln)'
p108
sg21
cdedupe.predicates
tokenFieldPredicate
p109
sg23
g24
sbag0
(g14
g2
Ntp110
Rp111
(dp112
g18
I1239232278
sg19
S'(suffixArray, ln)'
p113
sg21
cdedupe.predicates
suffixArray
p114
sg23
g24
sbag0
(g14
g2
Ntp115
Rp116
(dp117
g18
I-2047839212
sg19
S'(doubleMetaphone, ln)'
p118
sg21
cdedupe.predicates
doubleMetaphone
p119
sg23
g24
sbag0
(g14
g2
Ntp120
Rp121
(dp122
g18
I-532615459
sg19
S'(metaphoneToken, ln)'
p123
sg21
cdedupe.predicates
metaphoneToken
p124
sg23
g24
sbag0
(cdedupe.predicates
TfidfNGramCanopyPredicate
p125
g2
Ntp126
Rp127
(dp128
S'threshold'
p129
F0.2
sg19
S'(0.2, ln)'
p130
sg23
g24
sbag0
(g125
g2
Ntp131
Rp132
(dp133
g129
F0.4
sg19
S'(0.4, ln)'
p134
sg23
g24
sbag0
(g125
g2
Ntp135
Rp136
(dp137
g129
F0.6
sg19
S'(0.6, ln)'
p138
sg23
g24
sbag0
(g125
g2
Ntp139
Rp140
(dp141
g129
F0.8
sg19
S'(0.8, ln)'
p142
sg23
g24
sbag0
(cdedupe.predicates
TfidfNGramSearchPredicate
p143
g2
Ntp144
Rp145
(dp146
g129
F0.2
sg19
S'(0.2, ln)'
p147
sg23
g24
sbag0
(g143
g2
Ntp148
Rp149
(dp150
g129
F0.4
sg19
S'(0.4, ln)'
p151
sg23
g24
sbag0
(g143
g2
Ntp152
Rp153
(dp154
g129
F0.6
sg19
S'(0.6, ln)'
p155
sg23
g24
sbag0
(g143
g2
Ntp156
Rp157
(dp158
g129
F0.8
sg19
S'(0.8, ln)'
p159
sg23
g24
sbag0
(cdedupe.predicates
TfidfTextCanopyPredicate
p160
g2
Ntp161
Rp162
(dp163
g129
F0.2
sg19
S'(0.2, ln)'
p164
sg23
g24
sbag0
(g160
g2
Ntp165
Rp166
(dp167
g129
F0.4
sg19
S'(0.4, ln)'
p168
sg23
g24
sbag0
(g160
g2
Ntp169
Rp170
(dp171
g129
F0.6
sg19
S'(0.6, ln)'
p172
sg23
g24
sbag0
(g160
g2
Ntp173
Rp174
(dp175
g129
F0.8
sg19
S'(0.8, ln)'
p176
sg23
g24
sbag0
(cdedupe.predicates
TfidfTextSearchPredicate
p177
g2
Ntp178
Rp179
(dp180
g129
F0.2
sg19
S'(0.2, ln)'
p181
sg23
g24
sbag0
(g177
g2
Ntp182
Rp183
(dp184
g129
F0.4
sg19
S'(0.4, ln)'
p185
sg23
g24
sbag0
(g177
g2
Ntp186
Rp187
(dp188
g129
F0.6
sg19
S'(0.6, ln)'
p189
sg23
g24
sbag0
(g177
g2
Ntp190
Rp191
(dp192
g129
F0.8
sg19
S'(0.8, ln)'
p193
sg23
g24
sbag0
(cdedupe.predicates
LevenshteinCanopyPredicate
p194
g2
Ntp195
Rp196
(dp197
g129
I1
sg19
S'(1, ln)'
p198
sg23
g24
sbag0
(g194
g2
Ntp199
Rp200
(dp201
g129
I2
sg19
S'(2, ln)'
p202
sg23
g24
sbag0
(g194
g2
Ntp203
Rp204
(dp205
g129
I3
sg19
S'(3, ln)'
p206
sg23
g24
sbag0
(g194
g2
Ntp207
Rp208
(dp209
g129
I4
sg19
S'(4, ln)'
p210
sg23
g24
sbag0
(cdedupe.predicates
LevenshteinSearchPredicate
p211
g2
Ntp212
Rp213
(dp214
g129
I1
sg19
S'(1, ln)'
p215
sg23
g24
sbag0
(g211
g2
Ntp216
Rp217
(dp218
g129
I2
sg19
S'(2, ln)'
p219
sg23
g24
sbag0
(g211
g2
Ntp220
Rp221
(dp222
g129
I3
sg19
S'(3, ln)'
p223
sg23
g24
sbag0
(g211
g2
Ntp224
Rp225
(dp226
g129
I4
sg19
S'(4, ln)'
p227
sg23
g24
sbasg23
g24
sS'name'
p228
S'(ln: String)'
p229
sS'has_missing'
p230
I00
sS'comparator'
p231
caffinegap.affinegap
normalizedAffineGapDistance
p232
sbag0
(g8
g2
Ntp233
Rp234
(dp235
g12
(lp236
g0
(g14
g2
Ntp237
Rp238
(dp239
g18
I-884894830
sg19
S'(wholeFieldPredicate, dob)'
p240
sg21
g22
sg23
S'dob'
p241
sbag0
(g14
g2
Ntp242
Rp243
(dp244
g18
I522428448
sg19
S'(firstTokenPredicate, dob)'
p245
sg21
g29
sg23
g241
sbag0
(g14
g2
Ntp246
Rp247
(dp248
g18
I-1477104355
sg19
S'(commonIntegerPredicate, dob)'
p249
sg21
g34
sg23
g241
sbag0
(g14
g2
Ntp250
Rp251
(dp252
g18
I1549083140
sg19
S'(nearIntegersPredicate, dob)'
p253
sg21
g39
sg23
g241
sbag0
(g14
g2
Ntp254
Rp255
(dp256
g18
I-1888328671
sg19
S'(firstIntegerPredicate, dob)'
p257
sg21
g44
sg23
g241
sbag0
(g14
g2
Ntp258
Rp259
(dp260
g18
I-803792438
sg19
S'(alphaNumericPredicate, dob)'
p261
sg21
g49
sg23
g241
sbag0
(g14
g2
Ntp262
Rp263
(dp264
g18
I1426067341
sg19
S'(sameThreeCharStartPredicate, dob)'
p265
sg21
g54
sg23
g241
sbag0
(g14
g2
Ntp266
Rp267
(dp268
g18
I152721438
sg19
S'(sameFiveCharStartPredicate, dob)'
p269
sg21
g59
sg23
g241
sbag0
(g14
g2
Ntp270
Rp271
(dp272
g18
I1153708882
sg19
S'(sameSevenCharStartPredicate, dob)'
p273
sg21
g64
sg23
g241
sbag0
(g14
g2
Ntp274
Rp275
(dp276
g18
I1559665937
sg19
S'(commonTwoTokens, dob)'
p277
sg21
g69
sg23
g241
sbag0
(g14
g2
Ntp278
Rp279
(dp280
g18
I1035117565
sg19
S'(commonThreeTokens, dob)'
p281
sg21
g74
sg23
g241
sbag0
(g14
g2
Ntp282
Rp283
(dp284
g18
I221166264
sg19
S'(fingerprint, dob)'
p285
sg21
g79
sg23
g241
sbag0
(g14
g2
Ntp286
Rp287
(dp288
g18
I431900188
sg19
S'(oneGramFingerprint, dob)'
p289
sg21
g84
sg23
g241
sbag0
(g14
g2
Ntp290
Rp291
(dp292
g18
I1750313626
sg19
S'(twoGramFingerprint, dob)'
p293
sg21
g89
sg23
g241
sbag0
(g14
g2
Ntp294
Rp295
(dp296
g18
I-527453792
sg19
S'(sortedAcronym, dob)'
p297
sg21
g94
sg23
g241
sbag0
(g14
g2
Ntp298
Rp299
(dp300
g18
I-601163747
sg19
S'(commonFourGram, dob)'
p301
sg21
g99
sg23
g241
sbag0
(g14
g2
Ntp302
Rp303
(dp304
g18
I811941406
sg19
S'(commonSixGram, dob)'
p305
sg21
g104
sg23
g241
sbag0
(g14
g2
Ntp306
Rp307
(dp308
g18
I1255763488
sg19
S'(tokenFieldPredicate, dob)'
p309
sg21
g109
sg23
g241
sbag0
(g14
g2
Ntp310
Rp311
(dp312
g18
I607524810
sg19
S'(suffixArray, dob)'
p313
sg21
g114
sg23
g241
sbag0
(g14
g2
Ntp314
Rp315
(dp316
g18
I-534140088
sg19
S'(doubleMetaphone, dob)'
p317
sg21
g119
sg23
g241
sbag0
(g14
g2
Ntp318
Rp319
(dp320
g18
I405967747
sg19
S'(metaphoneToken, dob)'
p321
sg21
g124
sg23
g241
sbag0
(g125
g2
Ntp322
Rp323
(dp324
g129
F0.2
sg19
S'(0.2, dob)'
p325
sg23
g241
sbag0
(g125
g2
Ntp326
Rp327
(dp328
g129
F0.4
sg19
S'(0.4, dob)'
p329
sg23
g241
sbag0
(g125
g2
Ntp330
Rp331
(dp332
g129
F0.6
sg19
S'(0.6, dob)'
p333
sg23
g241
sbag0
(g125
g2
Ntp334
Rp335
(dp336
g129
F0.8
sg19
S'(0.8, dob)'
p337
sg23
g241
sbag0
(g143
g2
Ntp338
Rp339
(dp340
g129
F0.2
sg19
S'(0.2, dob)'
p341
sg23
g241
sbag0
(g143
g2
Ntp342
Rp343
(dp344
g129
F0.4
sg19
S'(0.4, dob)'
p345
sg23
g241
sbag0
(g143
g2
Ntp346
Rp347
(dp348
g129
F0.6
sg19
S'(0.6, dob)'
p349
sg23
g241
sbag0
(g143
g2
Ntp350
Rp351
(dp352
g129
F0.8
sg19
S'(0.8, dob)'
p353
sg23
g241
sbag0
(g160
g2
Ntp354
Rp355
(dp356
g129
F0.2
sg19
S'(0.2, dob)'
p357
sg23
g241
sbag0
(g160
g2
Ntp358
Rp359
(dp360
g129
F0.4
sg19
S'(0.4, dob)'
p361
sg23
g241
sbag0
(g160
g2
Ntp362
Rp363
(dp364
g129
F0.6
sg19
S'(0.6, dob)'
p365
sg23
g241
sbag0
(g160
g2
Ntp366
Rp367
(dp368
g129
F0.8
sg19
S'(0.8, dob)'
p369
sg23
g241
sbag0
(g177
g2
Ntp370
Rp371
(dp372
g129
F0.2
sg19
S'(0.2, dob)'
p373
sg23
g241
sbag0
(g177
g2
Ntp374
Rp375
(dp376
g129
F0.4
sg19
S'(0.4, dob)'
p377
sg23
g241
sbag0
(g177
g2
Ntp378
Rp379
(dp380
g129
F0.6
sg19
S'(0.6, dob)'
p381
sg23
g241
sbag0
(g177
g2
Ntp382
Rp383
(dp384
g129
F0.8
sg19
S'(0.8, dob)'
p385
sg23
g241
sbag0
(g194
g2
Ntp386
Rp387
(dp388
g129
I1
sg19
S'(1, dob)'
p389
sg23
g241
sbag0
(g194
g2
Ntp390
Rp391
(dp392
g129
I2
sg19
S'(2, dob)'
p393
sg23
g241
sbag0
(g194
g2
Ntp394
Rp395
(dp396
g129
I3
sg19
S'(3, dob)'
p397
sg23
g241
sbag0
(g194
g2
Ntp398
Rp399
(dp400
g129
I4
sg19
S'(4, dob)'
p401
sg23
g241
sbag0
(g211
g2
Ntp402
Rp403
(dp404
g129
I1
sg19
S'(1, dob)'
p405
sg23
g241
sbag0
(g211
g2
Ntp406
Rp407
(dp408
g129
I2
sg19
S'(2, dob)'
p409
sg23
g241
sbag0
(g211
g2
Ntp410
Rp411
(dp412
g129
I3
sg19
S'(3, dob)'
p413
sg23
g241
sbag0
(g211
g2
Ntp414
Rp415
(dp416
g129
I4
sg19
S'(4, dob)'
p417
sg23
g241
sbasg23
g241
sg228
S'(dob: String)'
p418
sg230
I00
sg231
g232
sbag0
(cdedupe.variables.exact
ExactType
p419
g2
Ntp420
Rp421
(dp422
g12
(lp423
g0
(cdedupe.predicates
SimplePredicate
p424
g2
Ntp425
Rp426
(dp427
g18
I-1122125399
sg19
S'(wholeFieldPredicate, gn)'
p428
sg21
g22
sg23
S'gn'
p429
sbasg23
g429
sg228
S'(gn: Exact)'
p430
sg230
I00
sbag0
(g8
g2
Ntp431
Rp432
(dp433
g12
(lp434
g0
(g14
g2
Ntp435
Rp436
(dp437
g18
I-1719504988
sg19
S'(wholeFieldPredicate, fn)'
p438
sg21
g22
sg23
S'fn'
p439
sbag0
(g14
g2
Ntp440
Rp441
(dp442
g18
I-1129069434
sg19
S'(firstTokenPredicate, fn)'
p443
sg21
g29
sg23
g439
sbag0
(g14
g2
Ntp444
Rp445
(dp446
g18
I1365826185
sg19
S'(commonIntegerPredicate, fn)'
p447
sg21
g34
sg23
g439
sbag0
(g14
g2
Ntp448
Rp449
(dp450
g18
I1187928242
sg19
S'(nearIntegersPredicate, fn)'
p451
sg21
g39
sg23
g439
sbag0
(g14
g2
Ntp452
Rp453
(dp454
g18
I1022229189
sg19
S'(firstIntegerPredicate, fn)'
p455
sg21
g44
sg23
g439
sbag0
(g14
g2
Ntp456
Rp457
(dp458
g18
I425007020
sg19
S'(alphaNumericPredicate, fn)'
p459
sg21
g49
sg23
g439
sbag0
(g14
g2
Ntp460
Rp461
(dp462
g18
I-1977288619
sg19
S'(sameThreeCharStartPredicate, fn)'
p463
sg21
g54
sg23
g439
sbag0
(g14
g2
Ntp464
Rp465
(dp466
g18
I45460024
sg19
S'(sameFiveCharStartPredicate, fn)'
p467
sg21
g59
sg23
g439
sbag0
(g14
g2
Ntp468
Rp469
(dp470
g18
I-1325426316
sg19
S'(sameSevenCharStartPredicate, fn)'
p471
sg21
g64
sg23
g439
sbag0
(g14
g2
Ntp472
Rp473
(dp474
g18
I1056286473
sg19
S'(commonTwoTokens, fn)'
p475
sg21
g69
sg23
g439
sbag0
(g14
g2
Ntp476
Rp477
(dp478
g18
I604543625
sg19
S'(commonThreeTokens, fn)'
p479
sg21
g74
sg23
g439
sbag0
(g14
g2
Ntp480
Rp481
(dp482
g18
I-874348994
sg19
S'(fingerprint, fn)'
p483
sg21
g79
sg23
g439
sbag0
(g14
g2
Ntp484
Rp485
(dp486
g18
I1796426246
sg19
S'(oneGramFingerprint, fn)'
p487
sg21
g84
sg23
g439
sbag0
(g14
g2
Ntp488
Rp489
(dp490
g18
I1206662460
sg19
S'(twoGramFingerprint, fn)'
p491
sg21
g89
sg23
g439
sbag0
(g14
g2
Ntp492
Rp493
(dp494
g18
I-882778922
sg19
S'(sortedAcronym, fn)'
p495
sg21
g94
sg23
g439
sbag0
(g14
g2
Ntp496
Rp497
(dp498
g18
I-107223527
sg19
S'(commonFourGram, fn)'
p499
sg21
g99
sg23
g439
sbag0
(g14
g2
Ntp500
Rp501
(dp502
g18
I-2112673768
sg19
S'(commonSixGram, fn)'
p503
sg21
g104
sg23
g439
sbag0
(g14
g2
Ntp504
Rp505
(dp506
g18
I765255302
sg19
S'(tokenFieldPredicate, fn)'
p507
sg21
g109
sg23
g439
sbag0
(g14
g2
Ntp508
Rp509
(dp510
g18
I-76902532
sg19
S'(suffixArray, fn)'
p511
sg21
g114
sg23
g439
sbag0
(g14
g2
Ntp512
Rp513
(dp514
g18
I-1946526530
sg19
S'(doubleMetaphone, fn)'
p515
sg21
g119
sg23
g439
sbag0
(g14
g2
Ntp516
Rp517
(dp518
g18
I-633928137
sg19
S'(metaphoneToken, fn)'
p519
sg21
g124
sg23
g439
sbag0
(g125
g2
Ntp520
Rp521
(dp522
g129
F0.2
sg19
S'(0.2, fn)'
p523
sg23
g439
sbag0
(g125
g2
Ntp524
Rp525
(dp526
g129
F0.4
sg19
S'(0.4, fn)'
p527
sg23
g439
sbag0
(g125
g2
Ntp528
Rp529
(dp530
g129
F0.6
sg19
S'(0.6, fn)'
p531
sg23
g439
sbag0
(g125
g2
Ntp532
Rp533
(dp534
g129
F0.8
sg19
S'(0.8, fn)'
p535
sg23
g439
sbag0
(g143
g2
Ntp536
Rp537
(dp538
g129
F0.2
sg19
S'(0.2, fn)'
p539
sg23
g439
sbag0
(g143
g2
Ntp540
Rp541
(dp542
g129
F0.4
sg19
S'(0.4, fn)'
p543
sg23
g439
sbag0
(g143
g2
Ntp544
Rp545
(dp546
g129
F0.6
sg19
S'(0.6, fn)'
p547
sg23
g439
sbag0
(g143
g2
Ntp548
Rp549
(dp550
g129
F0.8
sg19
S'(0.8, fn)'
p551
sg23
g439
sbag0
(g160
g2
Ntp552
Rp553
(dp554
g129
F0.2
sg19
S'(0.2, fn)'
p555
sg23
g439
sbag0
(g160
g2
Ntp556
Rp557
(dp558
g129
F0.4
sg19
S'(0.4, fn)'
p559
sg23
g439
sbag0
(g160
g2
Ntp560
Rp561
(dp562
g129
F0.6
sg19
S'(0.6, fn)'
p563
sg23
g439
sbag0
(g160
g2
Ntp564
Rp565
(dp566
g129
F0.8
sg19
S'(0.8, fn)'
p567
sg23
g439
sbag0
(g177
g2
Ntp568
Rp569
(dp570
g129
F0.2
sg19
S'(0.2, fn)'
p571
sg23
g439
sbag0
(g177
g2
Ntp572
Rp573
(dp574
g129
F0.4
sg19
S'(0.4, fn)'
p575
sg23
g439
sbag0
(g177
g2
Ntp576
Rp577
(dp578
g129
F0.6
sg19
S'(0.6, fn)'
p579
sg23
g439
sbag0
(g177
g2
Ntp580
Rp581
(dp582
g129
F0.8
sg19
S'(0.8, fn)'
p583
sg23
g439
sbag0
(g194
g2
Ntp584
Rp585
(dp586
g129
I1
sg19
S'(1, fn)'
p587
sg23
g439
sbag0
(g194
g2
Ntp588
Rp589
(dp590
g129
I2
sg19
S'(2, fn)'
p591
sg23
g439
sbag0
(g194
g2
Ntp592
Rp593
(dp594
g129
I3
sg19
S'(3, fn)'
p595
sg23
g439
sbag0
(g194
g2
Ntp596
Rp597
(dp598
g129
I4
sg19
S'(4, fn)'
p599
sg23
g439
sbag0
(g211
g2
Ntp600
Rp601
(dp602
g129
I1
sg19
S'(1, fn)'
p603
sg23
g439
sbag0
(g211
g2
Ntp604
Rp605
(dp606
g129
I2
sg19
S'(2, fn)'
p607
sg23
g439
sbag0
(g211
g2
Ntp608
Rp609
(dp610
g129
I3
sg19
S'(3, fn)'
p611
sg23
g439
sbag0
(g211
g2
Ntp612
Rp613
(dp614
g129
I4
sg19
S'(4, fn)'
p615
sg23
g439
sbasg23
g439
sg228
S'(fn: String)'
p616
sg230
I00
sg231
g232
sbasS'_variables'
p617
(lp618
g10
ag234
ag421
ag432
asS'_missing_field_indices'
p619
(lp620
sS'_derived_start'
p621
I4
sS'_interaction_indices'
p622
(lp623
sb.ccopy_reg
_reconstructor
p0
(crlr.lr
RegularizedLogisticRegression
p1
c__builtin__
object
p2
Ntp3
Rp4
(dp5
S'alpha'
p6
F0.01
sS'bias'
p7
cnumpy.core.multiarray
scalar
p8
(cnumpy
dtype
p9
(S'f8'
p10
I0
I1
tp11
Rp12
(I3
S'<'
p13
NNNI-1
I-1
I0
tp14
bS']\xfc\xa9\xa70\xfd\x1a@'
p15
tp16
Rp17
sS'num_cores'
p18
I0
sS'cv'
p19
I3
sS'weights'
p20
cnumpy.core.multiarray
_reconstruct
p21
(cnumpy
ndarray
p22
(I0
tp23
S'b'
p24
tp25
Rp26
(I1
(L4L
tp27
g12
I00
S'\xaf,&Q\x96\xce\x04\xc0h\x1c\x140\xaax\r\xc0\x96\x16\xc0\x14\x9d\xd5\xf1\xbe\xd0]\x86\xd6\xda\xec\xf3\xbf'
p28
tp29
bsb.(ccopy_reg
_reconstructor
p0
(cdedupe.predicates
CompoundPredicate
p1
c__builtin__
tuple
p2
(g0
(cdedupe.predicates
StringPredicate
p3
c__builtin__
object
p4
Ntp5
Rp6
(dp7
S'_cached_hash'
p8
I-1494675518
sS'__name__'
p9
S'(sameFiveCharStartPredicate, ln)'
p10
sS'func'
p11
cdedupe.predicates
sameFiveCharStartPredicate
p12
sS'field'
p13
S'ln'
p14
sbg0
(g3
g4
Ntp15
Rp16
(dp17
g8
I1153708882
sg9
S'(sameSevenCharStartPredicate, dob)'
p18
sg11
cdedupe.predicates
sameSevenCharStartPredicate
p19
sg13
S'dob'
p20
sbtp21
tp22
Rp23
(dp24
S'count'
p25
F164.0
sbtp26
.